; Function Attrs: mustprogress uwtable
define dso_local void @_ZN4i18n12phonenumbers11UnicodeText4Repr7reserveEi(ptr noundef nonnull align 8 captures(none) dereferenceable(18) %0, i32 noundef %1) local_unnamed_addr #1 align 2 {
  %3 = getelementptr inbounds nuw i8, ptr %0, i64 12
  %4 = load i32, ptr %3, align 4, !tbaa !13
  %.not = icmp slt i32 %4, %1
  br i1 %.not, label %9, label %5

5:                                                ; preds = %2
  %6 = getelementptr inbounds nuw i8, ptr %0, i64 16
  %7 = load i8, ptr %6, align 8, !tbaa !17, !range !18, !noundef !19
  %8 = trunc nuw i8 %7 to i1
  br i1 %8, label %26, label %9

9:                                                ; preds = %5, %2
  %10 = mul nsw i32 %4, 3
  %11 = sdiv i32 %10, 2
  %12 = add nsw i32 %11, 20
  %.sroa.speculated = tail call i32 @llvm.smax.i32(i32 %1, i32 %12)
  store i32 %.sroa.speculated, ptr %3, align 4, !tbaa !13
  %13 = sext i32 %.sroa.speculated to i64
  %14 = tail call noalias noundef nonnull ptr @_Znam(i64 noundef %13) #25
  %15 = load ptr, ptr %0, align 8, !tbaa !20
  %.not4 = icmp eq ptr %15, null
  br i1 %.not4, label %24, label %16

16:                                               ; preds = %9
  %17 = getelementptr inbounds nuw i8, ptr %0, i64 8
  %18 = load i32, ptr %17, align 8, !tbaa !21
  %19 = sext i32 %18 to i64
  tail call void @llvm.memcpy.p0.p0.i64(ptr nonnull align 1 %14, ptr nonnull align 1 %15, i64 %19, i1 false)
  %20 = getelementptr inbounds nuw i8, ptr %0, i64 16
  %21 = load i8, ptr %20, align 8, !tbaa !17, !range !18, !noundef !19
  %22 = trunc nuw i8 %21 to i1
  br i1 %22, label %23, label %24

23:                                               ; preds = %16
  tail call void @_ZdaPv(ptr noundef nonnull %15) #26
  br label %24

24:                                               ; preds = %16, %23, %9
  store ptr %14, ptr %0, align 8, !tbaa !20
  %25 = getelementptr inbounds nuw i8, ptr %0, i64 16
  store i8 1, ptr %25, align 8, !tbaa !17
  br label %26

26:                                               ; preds = %5, %24
  ret void
}